target datalayout = "e-m:e-p270:32:32-p271:32:32-p272:64:64-i64:64-i128:128-f80:128-n8:16:32:64-S128"
target triple = "x86_64-pc-linux-gnu"

%class.TreeNodeData = type <{ i32, i8, [3 x i8] }>
%class.OctNode = type { i64, ptr, ptr, %class.TreeNodeData }

; Function Attrs: mustprogress nounwind uwtable
define linkonce_odr noundef i32 @_ZN10BinaryNode11CornerIndexEiiii(i32 noundef %0, i32 noundef %1, i32 noundef %2, i32 noundef %3) #4 comdat align 2 {
  %5 = alloca i32, align 4
  %6 = alloca i32, align 4
  %7 = alloca i32, align 4
  %8 = alloca i32, align 4
  store i32 %0, ptr %5, align 4
  store i32 %1, ptr %6, align 4
  store i32 %2, ptr %7, align 4
  store i32 %3, ptr %8, align 4
  %9 = load i32, ptr %7, align 4
  %10 = load i32, ptr %8, align 4
  %11 = add nsw i32 %9, %10
  %12 = load i32, ptr %5, align 4
  %13 = load i32, ptr %6, align 4
  %14 = sub nsw i32 %12, %13
  %15 = shl i32 %11, %14
  ret i32 %15
}

; Function Attrs: mustprogress nounwind uwtable
define linkonce_odr void @_ZNK7OctNodeI12TreeNodeDataE14depthAndOffsetERiPi(ptr noundef nonnull align 8 dereferenceable(32) %0, ptr noundef nonnull align 4 dereferenceable(4) %1, ptr noundef %2) #4 comdat align 2 {
  %4 = alloca ptr, align 8
  %5 = alloca ptr, align 8
  %6 = alloca ptr, align 8
  store ptr %0, ptr %4, align 8
  store ptr %1, ptr %5, align 8
  store ptr %2, ptr %6, align 8
  %7 = load ptr, ptr %4, align 8
  %8 = getelementptr inbounds %class.OctNode, ptr %7, i32 0, i32 0
  %9 = load i64, ptr %8, align 8
  %10 = and i64 %9, 31
  %11 = trunc i64 %10 to i32
  %12 = load ptr, ptr %5, align 8
  store i32 %11, ptr %12, align 4
  %13 = getelementptr inbounds %class.OctNode, ptr %7, i32 0, i32 0
  %14 = load i64, ptr %13, align 8
  %15 = lshr i64 %14, 5
  %16 = and i64 %15, 524287
  %17 = trunc i64 %16 to i32
  %18 = load ptr, ptr %6, align 8
  %19 = getelementptr inbounds i32, ptr %18, i64 0
  store i32 %17, ptr %19, align 4
  %20 = getelementptr inbounds %class.OctNode, ptr %7, i32 0, i32 0
  %21 = load i64, ptr %20, align 8
  %22 = lshr i64 %21, 24
  %23 = and i64 %22, 524287
  %24 = trunc i64 %23 to i32
  %25 = load ptr, ptr %6, align 8
  %26 = getelementptr inbounds i32, ptr %25, i64 1
  store i32 %24, ptr %26, align 4
  %27 = getelementptr inbounds %class.OctNode, ptr %7, i32 0, i32 0
  %28 = load i64, ptr %27, align 8
  %29 = lshr i64 %28, 43
  %30 = and i64 %29, 524287
  %31 = trunc i64 %30 to i32
  %32 = load ptr, ptr %6, align 8
  %33 = getelementptr inbounds i32, ptr %32, i64 2
  store i32 %31, ptr %33, align 4
  ret void
}

; Function Attrs: mustprogress uwtable
define noundef i64 @_ZN10VertexData9EdgeIndexEPK7OctNodeI12TreeNodeDataEiiPi(ptr noundef %0, i32 noundef %1, i32 noundef %2, ptr noundef %3) #5 align 2 {
  %5 = alloca ptr, align 8
  %6 = alloca i32, align 4
  %7 = alloca i32, align 4
  %8 = alloca ptr, align 8
  %9 = alloca i32, align 4
  %10 = alloca i32, align 4
  %11 = alloca i32, align 4
  %12 = alloca i32, align 4
  %13 = alloca [3 x i32], align 4
  %14 = alloca i32, align 4
  store ptr %0, ptr %5, align 8
  store i32 %1, ptr %6, align 4
  store i32 %2, ptr %7, align 4
  store ptr %3, ptr %8, align 8
  %15 = load ptr, ptr %5, align 8
  %16 = getelementptr inbounds [3 x i32], ptr %13, i64 0, i64 0
  call void @_ZNK7OctNodeI12TreeNodeDataE14depthAndOffsetERiPi(ptr noundef nonnull align 8 dereferenceable(32) %15, ptr noundef nonnull align 4 dereferenceable(4) %12, ptr noundef %16)
  %17 = load i32, ptr %6, align 4
  call void @_ZN4Cube15FactorEdgeIndexEiRiS0_S0_(i32 noundef %17, ptr noundef nonnull align 4 dereferenceable(4) %9, ptr noundef nonnull align 4 dereferenceable(4) %10, ptr noundef nonnull align 4 dereferenceable(4) %11)
  store i32 0, ptr %14, align 4
  br label %18

18:                                               ; preds = %36, %4
  %19 = load i32, ptr %14, align 4
  %20 = icmp slt i32 %19, 3
  br i1 %20, label %21, label %39

21:                                               ; preds = %18
  %22 = load i32, ptr %7, align 4
  %23 = add nsw i32 %22, 1
  %24 = load i32, ptr %12, align 4
  %25 = add nsw i32 %24, 1
  %26 = load i32, ptr %14, align 4
  %27 = sext i32 %26 to i64
  %28 = getelementptr inbounds [3 x i32], ptr %13, i64 0, i64 %27
  %29 = load i32, ptr %28, align 4
  %30 = shl i32 %29, 1
  %31 = call noundef i32 @_ZN10BinaryNode11CornerIndexEiiii(i32 noundef %23, i32 noundef %25, i32 noundef %30, i32 noundef 1)
  %32 = load ptr, ptr %8, align 8
  %33 = load i32, ptr %14, align 4
  %34 = sext i32 %33 to i64
  %35 = getelementptr inbounds i32, ptr %32, i64 %34
  store i32 %31, ptr %35, align 4
  br label %36

36:                                               ; preds = %21
  %37 = load i32, ptr %14, align 4
  %38 = add nsw i32 %37, 1
  store i32 %38, ptr %14, align 4
  br label %18, !llvm.loop !16

39:                                               ; preds = %18
  %40 = load i32, ptr %9, align 4
  switch i32 %40, label %98 [
    i32 0, label %41
    i32 1, label %60
    i32 2, label %79
  ]

41:                                               ; preds = %39
  %42 = load i32, ptr %7, align 4
  %43 = add nsw i32 %42, 1
  %44 = load i32, ptr %12, align 4
  %45 = getelementptr inbounds [3 x i32], ptr %13, i64 0, i64 1
  %46 = load i32, ptr %45, align 4
  %47 = load i32, ptr %10, align 4
  %48 = call noundef i32 @_ZN10BinaryNode11CornerIndexEiiii(i32 noundef %43, i32 noundef %44, i32 noundef %46, i32 noundef %47)
  %49 = load ptr, ptr %8, align 8
  %50 = getelementptr inbounds i32, ptr %49, i64 1
  store i32 %48, ptr %50, align 4
  %51 = load i32, ptr %7, align 4
  %52 = add nsw i32 %51, 1
  %53 = load i32, ptr %12, align 4
  %54 = getelementptr inbounds [3 x i32], ptr %13, i64 0, i64 2
  %55 = load i32, ptr %54, align 4
  %56 = load i32, ptr %11, align 4
  %57 = call noundef i32 @_ZN10BinaryNode11CornerIndexEiiii(i32 noundef %52, i32 noundef %53, i32 noundef %55, i32 noundef %56)
  %58 = load ptr, ptr %8, align 8
  %59 = getelementptr inbounds i32, ptr %58, i64 2
  store i32 %57, ptr %59, align 4
  br label %98

60:                                               ; preds = %39
  %61 = load i32, ptr %7, align 4
  %62 = add nsw i32 %61, 1
  %63 = load i32, ptr %12, align 4
  %64 = getelementptr inbounds [3 x i32], ptr %13, i64 0, i64 0
  %65 = load i32, ptr %64, align 4
  %66 = load i32, ptr %10, align 4
  %67 = call noundef i32 @_ZN10BinaryNode11CornerIndexEiiii(i32 noundef %62, i32 noundef %63, i32 noundef %65, i32 noundef %66)
  %68 = load ptr, ptr %8, align 8
  %69 = getelementptr inbounds i32, ptr %68, i64 0
  store i32 %67, ptr %69, align 4
  %70 = load i32, ptr %7, align 4
  %71 = add nsw i32 %70, 1
  %72 = load i32, ptr %12, align 4
  %73 = getelementptr inbounds [3 x i32], ptr %13, i64 0, i64 2
  %74 = load i32, ptr %73, align 4
  %75 = load i32, ptr %11, align 4
  %76 = call noundef i32 @_ZN10BinaryNode11CornerIndexEiiii(i32 noundef %71, i32 noundef %72, i32 noundef %74, i32 noundef %75)
  %77 = load ptr, ptr %8, align 8
  %78 = getelementptr inbounds i32, ptr %77, i64 2
  store i32 %76, ptr %78, align 4
  br label %98

79:                                               ; preds = %39
  %80 = load i32, ptr %7, align 4
  %81 = add nsw i32 %80, 1
  %82 = load i32, ptr %12, align 4
  %83 = getelementptr inbounds [3 x i32], ptr %13, i64 0, i64 0
  %84 = load i32, ptr %83, align 4
  %85 = load i32, ptr %10, align 4
  %86 = call noundef i32 @_ZN10BinaryNode11CornerIndexEiiii(i32 noundef %81, i32 noundef %82, i32 noundef %84, i32 noundef %85)
  %87 = load ptr, ptr %8, align 8
  %88 = getelementptr inbounds i32, ptr %87, i64 0
  store i32 %86, ptr %88, align 4
  %89 = load i32, ptr %7, align 4
  %90 = add nsw i32 %89, 1
  %91 = load i32, ptr %12, align 4
  %92 = getelementptr inbounds [3 x i32], ptr %13, i64 0, i64 1
  %93 = load i32, ptr %92, align 4
  %94 = load i32, ptr %11, align 4
  %95 = call noundef i32 @_ZN10BinaryNode11CornerIndexEiiii(i32 noundef %90, i32 noundef %91, i32 noundef %93, i32 noundef %94)
  %96 = load ptr, ptr %8, align 8
  %97 = getelementptr inbounds i32, ptr %96, i64 1
  store i32 %95, ptr %97, align 4
  br label %98

98:                                               ; preds = %79, %60, %41, %39
  %99 = load ptr, ptr %8, align 8
  %100 = getelementptr inbounds i32, ptr %99, i64 0
  %101 = load i32, ptr %100, align 4
  %102 = sext i32 %101 to i64
  %103 = load ptr, ptr %8, align 8
  %104 = getelementptr inbounds i32, ptr %103, i64 1
  %105 = load i32, ptr %104, align 4
  %106 = sext i32 %105 to i64
  %107 = shl i64 %106, 21
  %108 = or i64 %102, %107
  %109 = load ptr, ptr %8, align 8
  %110 = getelementptr inbounds i32, ptr %109, i64 2
  %111 = load i32, ptr %110, align 4
  %112 = sext i32 %111 to i64
  %113 = shl i64 %112, 42
  %114 = or i64 %108, %113
  ret i64 %114
}