; Function Attrs: mustprogress uwtable
define noundef i64 @_ZN10VertexData9EdgeIndexEPK7OctNodeI12TreeNodeDataEiiPi(ptr nocapture noundef readonly %0, i32 noundef %1, i32 noundef %2, ptr nocapture noundef %3) local_unnamed_addr #9 align 2 {
  %5 = alloca i32, align 4
  %6 = alloca i32, align 4
  %7 = alloca i32, align 4
  %8 = alloca [3 x i32], align 4
  %9 = load i64, ptr %0, align 8
  %10 = trunc i64 %9 to i32
  %11 = and i32 %10, 31
  %12 = lshr i32 %10, 5
  %13 = and i32 %12, 524287
  store i32 %13, ptr %8, align 4
  %14 = lshr i64 %9, 24
  %15 = trunc i64 %14 to i32
  %16 = and i32 %15, 524287
  %17 = getelementptr inbounds i8, ptr %8, i64 4
  store i32 %16, ptr %17, align 4
  %18 = lshr i64 %9, 43
  %19 = trunc i64 %18 to i32
  %20 = and i32 %19, 524287
  %21 = getelementptr inbounds i8, ptr %8, i64 8
  store i32 %20, ptr %21, align 4
  call void @_ZN4Cube15FactorEdgeIndexEiRiS0_S0_(i32 noundef %1, ptr noundef nonnull align 4 dereferenceable(4) %5, ptr noundef nonnull align 4 dereferenceable(4) %6, ptr noundef nonnull align 4 dereferenceable(4) %7)
  %22 = sub i32 %2, %11
  br label %23

23:                                               ; preds = %4, %23
  %indvars.iv = phi i64 [ 0, %4 ], [ %indvars.iv.next, %23 ]
  %24 = getelementptr inbounds [3 x i32], ptr %8, i64 0, i64 %indvars.iv
  %25 = load i32, ptr %24, align 4
  %26 = shl i32 %25, 1
  %27 = or disjoint i32 %26, 1
  %28 = shl i32 %27, %22
  %29 = getelementptr inbounds i32, ptr %3, i64 %indvars.iv
  store i32 %28, ptr %29, align 4
  %indvars.iv.next = add nuw nsw i64 %indvars.iv, 1
  %exitcond.not = icmp eq i64 %indvars.iv.next, 3
  br i1 %exitcond.not, label %30, label %23, !llvm.loop !15

30:                                               ; preds = %23
  %31 = load i32, ptr %5, align 4
  switch i32 %31, label %61 [
    i32 0, label %32
    i32 1, label %42
    i32 2, label %51
  ]

32:                                               ; preds = %30
  %33 = add nsw i32 %2, 1
  %34 = load i32, ptr %6, align 4
  %35 = add nsw i32 %34, %16
  %36 = sub i32 %33, %11
  %37 = shl i32 %35, %36
  %38 = getelementptr inbounds i8, ptr %3, i64 4
  store i32 %37, ptr %38, align 4
  %39 = load i32, ptr %7, align 4
  %40 = add nsw i32 %39, %20
  %41 = shl i32 %40, %36
  br label %.sink.split

42:                                               ; preds = %30
  %43 = add nsw i32 %2, 1
  %44 = load i32, ptr %6, align 4
  %45 = add nsw i32 %44, %13
  %46 = sub i32 %43, %11
  %47 = shl i32 %45, %46
  store i32 %47, ptr %3, align 4
  %48 = load i32, ptr %7, align 4
  %49 = add nsw i32 %48, %20
  %50 = shl i32 %49, %46
  br label %.sink.split

51:                                               ; preds = %30
  %52 = add nsw i32 %2, 1
  %53 = load i32, ptr %6, align 4
  %54 = add nsw i32 %53, %13
  %55 = sub i32 %52, %11
  %56 = shl i32 %54, %55
  store i32 %56, ptr %3, align 4
  %57 = load i32, ptr %7, align 4
  %58 = add nsw i32 %57, %16
  %59 = shl i32 %58, %55
  br label %.sink.split

.sink.split:                                      ; preds = %32, %42, %51
  %.sink31 = phi i64 [ 4, %51 ], [ 8, %42 ], [ 8, %32 ]
  %.sink = phi i32 [ %59, %51 ], [ %50, %42 ], [ %41, %32 ]
  %60 = getelementptr inbounds i8, ptr %3, i64 %.sink31
  store i32 %.sink, ptr %60, align 4
  br label %61

61:                                               ; preds = %.sink.split, %30
  %62 = load i32, ptr %3, align 4
  %63 = sext i32 %62 to i64
  %64 = getelementptr inbounds i8, ptr %3, i64 4
  %65 = load i32, ptr %64, align 4
  %66 = sext i32 %65 to i64
  %67 = shl nsw i64 %66, 21
  %68 = or i64 %67, %63
  %69 = getelementptr inbounds i8, ptr %3, i64 8
  %70 = load i32, ptr %69, align 4
  %71 = zext i32 %70 to i64
  %72 = shl i64 %71, 42
  %73 = or i64 %68, %72
  ret i64 %73
}